target datalayout = "e-m:e-p270:32:32-p271:32:32-p272:64:64-i64:64-i128:128-f80:128-n8:16:32:64-S128"
target triple = "x86_64-pc-linux-gnu"

%struct.archive_write_filter = type { i64, ptr, ptr, ptr, ptr, ptr, ptr, ptr, ptr, ptr, ptr, i32, i32, i32, i32 }

; Function Attrs: nounwind uwtable
define internal i32 @__archive_write_open_filter(ptr noundef %0) #0 {
  %2 = alloca i32, align 4
  %3 = alloca ptr, align 8
  %4 = alloca i32, align 4
  %5 = alloca i32, align 4
  store ptr %0, ptr %3, align 8, !tbaa !33
  call void @llvm.lifetime.start.p0(i64 4, ptr %4) #9
  store i32 0, ptr %4, align 4, !tbaa !28
  %6 = load ptr, ptr %3, align 8, !tbaa !33
  %7 = getelementptr inbounds nuw %struct.archive_write_filter, ptr %6, i32 0, i32 2
  %8 = load ptr, ptr %7, align 8, !tbaa !39
  %9 = icmp ne ptr %8, null
  br i1 %9, label %10, label %15

10:                                               ; preds = %1
  %11 = load ptr, ptr %3, align 8, !tbaa !33
  %12 = getelementptr inbounds nuw %struct.archive_write_filter, ptr %11, i32 0, i32 2
  %13 = load ptr, ptr %12, align 8, !tbaa !39
  %14 = call i32 @__archive_write_open_filter(ptr noundef %13)
  store i32 %14, ptr %4, align 4, !tbaa !28
  br label %15

15:                                               ; preds = %10, %1
  %16 = load i32, ptr %4, align 4, !tbaa !28
  %17 = icmp ne i32 %16, 0
  br i1 %17, label %18, label %20

18:                                               ; preds = %15
  %19 = load i32, ptr %4, align 4, !tbaa !28
  store i32 %19, ptr %2, align 4
  store i32 1, ptr %5, align 4
  br label %50

20:                                               ; preds = %15
  %21 = load ptr, ptr %3, align 8, !tbaa !33
  %22 = getelementptr inbounds nuw %struct.archive_write_filter, ptr %21, i32 0, i32 14
  %23 = load i32, ptr %22, align 4, !tbaa !36
  %24 = icmp ne i32 %23, 1
  br i1 %24, label %25, label %26

25:                                               ; preds = %20
  store i32 -30, ptr %2, align 4
  store i32 1, ptr %5, align 4
  br label %50

26:                                               ; preds = %20
  %27 = load ptr, ptr %3, align 8, !tbaa !33
  %28 = getelementptr inbounds nuw %struct.archive_write_filter, ptr %27, i32 0, i32 4
  %29 = load ptr, ptr %28, align 8, !tbaa !50
  %30 = icmp eq ptr %29, null
  br i1 %30, label %31, label %34

31:                                               ; preds = %26
  %32 = load ptr, ptr %3, align 8, !tbaa !33
  %33 = getelementptr inbounds nuw %struct.archive_write_filter, ptr %32, i32 0, i32 14
  store i32 2, ptr %33, align 4, !tbaa !36
  store i32 0, ptr %2, align 4
  store i32 1, ptr %5, align 4
  br label %50

34:                                               ; preds = %26
  %35 = load ptr, ptr %3, align 8, !tbaa !33
  %36 = getelementptr inbounds nuw %struct.archive_write_filter, ptr %35, i32 0, i32 4
  %37 = load ptr, ptr %36, align 8, !tbaa !50
  %38 = load ptr, ptr %3, align 8, !tbaa !33
  %39 = call i32 %37(ptr noundef %38)
  store i32 %39, ptr %4, align 4, !tbaa !28
  %40 = load i32, ptr %4, align 4, !tbaa !28
  %41 = icmp eq i32 %40, 0
  br i1 %41, label %42, label %45

42:                                               ; preds = %34
  %43 = load ptr, ptr %3, align 8, !tbaa !33
  %44 = getelementptr inbounds nuw %struct.archive_write_filter, ptr %43, i32 0, i32 14
  store i32 2, ptr %44, align 4, !tbaa !36
  br label %48

45:                                               ; preds = %34
  %46 = load ptr, ptr %3, align 8, !tbaa !33
  %47 = getelementptr inbounds nuw %struct.archive_write_filter, ptr %46, i32 0, i32 14
  store i32 32768, ptr %47, align 4, !tbaa !36
  br label %48

48:                                               ; preds = %45, %42
  %49 = load i32, ptr %4, align 4, !tbaa !28
  store i32 %49, ptr %2, align 4
  store i32 1, ptr %5, align 4
  br label %50

50:                                               ; preds = %48, %31, %25, %18
  call void @llvm.lifetime.end.p0(i64 4, ptr %4) #9
  %51 = load i32, ptr %2, align 4
  ret i32 %51
}