; Function Attrs: nounwind uwtable
define internal fastcc i32 @__archive_write_open_filter(ptr noundef %0) unnamed_addr #3 {
  %2 = getelementptr inbounds nuw i8, ptr %0, i64 16
  %3 = load ptr, ptr %2, align 8, !tbaa !32
  %.not = icmp eq ptr %3, null
  br i1 %.not, label %.thread, label %4

4:                                                ; preds = %1
  %5 = tail call fastcc i32 @__archive_write_open_filter(ptr noundef nonnull %3)
  %.not16 = icmp eq i32 %5, 0
  br i1 %.not16, label %.thread, label %15

.thread:                                          ; preds = %1, %4
  %6 = getelementptr inbounds nuw i8, ptr %0, i64 100
  %7 = load i32, ptr %6, align 4, !tbaa !29
  %.not17 = icmp eq i32 %7, 1
  br i1 %.not17, label %8, label %15

8:                                                ; preds = %.thread
  %9 = getelementptr inbounds nuw i8, ptr %0, i64 32
  %10 = load ptr, ptr %9, align 8, !tbaa !40
  %11 = icmp eq ptr %10, null
  br i1 %11, label %.sink.split, label %12

12:                                               ; preds = %8
  %13 = tail call i32 %10(ptr noundef nonnull %0) #13
  %14 = icmp eq i32 %13, 0
  %. = select i1 %14, i32 2, i32 32768
  br label %.sink.split

.sink.split:                                      ; preds = %8, %12
  %..sink = phi i32 [ %., %12 ], [ 2, %8 ]
  %.013.ph = phi i32 [ %13, %12 ], [ 0, %8 ]
  store i32 %..sink, ptr %6, align 4, !tbaa !29
  br label %15

15:                                               ; preds = %.sink.split, %.thread, %4
  %.013 = phi i32 [ %5, %4 ], [ -30, %.thread ], [ %.013.ph, %.sink.split ]
  ret i32 %.013
}